Certificate:
    Data:
        Version: 1 (0x0)
        Serial Number:
            35:c2:af:f4:72:04:72:22:50:ab:b9:df:a1:4b:fa:c1:6b:a5:80:1b
        Signature Algorithm: sha256WithRSAEncryption
        Issuer: C = C1, ST = JS1, L = WX1, O = ESP1, OU = ESP1, CN = Server1 CA, emailAddress = ESP1
        Validity
            Not Before: Jun 18 03:54:08 2022 GMT
            Not After : Feb 25 03:54:08 2036 GMT
        Subject: C = C2, ST = JS22, L = WX22, O = ESP22, OU = ESP22, CN = Server22 CA, emailAddress = ESP22
        Subject Public Key Info:
            Public Key Algorithm: rsaEncryption
                RSA Public-Key: (2048 bit)
                Modulus:
                    00:ac:e9:98:61:f5:fb:3d:71:6b:ad:91:af:bf:d2:
                    9c:da:6c:7c:8a:b0:9b:c3:93:ce:10:a5:ee:cf:a9:
                    3d:70:fc:93:f6:5c:4e:28:5e:16:fe:d2:f8:c1:dd:
                    d5:42:cd:bc:f8:c0:39:bf:c0:c0:85:b7:da:93:61:
                    a3:a4:7e:e5:f1:df:a6:7f:6b:4e:b5:01:1c:61:60:
                    fe:93:a0:b5:70:83:59:80:d8:54:06:69:f4:8b:b7:
                    96:0f:6e:39:fe:d9:33:24:f6:74:a9:06:4a:ad:06:
                    e1:e4:b7:fb:3a:3f:eb:f0:d1:88:40:a7:87:d0:91:
                    a0:e1:fa:b1:76:79:94:61:e1:90:4a:33:30:71:0d:
                    b1:d6:c0:c8:f5:90:1e:e9:2c:e1:b7:7a:38:88:d2:
                    97:6a:4c:d5:e7:b1:0a:e5:e4:36:76:cd:f9:27:24:
                    a9:6b:53:b5:bb:39:7b:9c:51:b4:59:70:f2:79:1b:
                    3f:bd:fb:61:be:75:1e:b3:b3:36:ed:62:c1:03:11:
                    02:31:a4:25:18:8b:22:78:c3:86:94:f4:c7:21:bf:
                    76:d8:07:76:df:e6:73:3d:61:28:97:e1:5e:7e:8b:
                    ea:f5:27:a8:be:e3:bb:a1:4d:37:1c:f2:2a:06:3b:
                    bf:a0:5c:1d:0f:3d:d5:2a:f8:7b:c1:fa:91:e8:1d:
                    22:31
                Exponent: 65537 (0x10001)
    Signature Algorithm: sha256WithRSAEncryption
         7b:30:4c:3a:72:30:8d:03:3f:41:95:73:91:f2:b6:87:2a:53:
         dd:e2:bc:09:da:ea:78:ec:15:9b:1d:a3:ba:8e:3a:b9:0e:4d:
         18:e3:50:f4:7c:ea:6a:71:cd:d3:64:56:c6:83:ec:5a:a2:3a:
         b1:8f:43:f7:22:2b:7b:de:08:c4:58:fa:09:c6:ab:8c:bb:87:
         09:3c:d0:d6:08:97:3a:6e:06:61:c4:43:fc:f9:6b:56:f7:47:
         25:12:b8:ab:96:17:35:23:fe:7a:a8:fb:cb:4e:88:c5:7d:06:
         b6:1b:d0:c6:bd:1f:c2:01:a4:5f:44:4b:e5:cd:d4:88:fb:90:
         62:69:63:45:b1:54:cb:2d:30:5d:3b:4d:a8:87:52:2d:9e:d5:
         1d:74:1b:af:a8:16:e6:88:91:34:4b:3f:17:36:9a:80:b6:5e:
         09:1d:56:b7:de:fd:df:3f:31:46:5e:67:52:bc:2c:f1:b2:e0:
         83:0e:8a:cb:e7:d8:48:92:1c:51:75:84:39:25:63:14:97:f0:
         a2:87:b9:b1:9e:ff:2e:dc:03:6c:77:09:b9:81:d3:8f:31:0f:
         2a:c5:b6:9f:79:92:56:7e:0b:92:2a:d3:ce:1e:ad:5c:d5:58:
         eb:01:92:ed:dc:ad:e3:24:3b:31:68:f2:9a:33:56:45:56:18:
         92:72:17:e6
-----BEGIN CERTIFICATE-----
MIIDbzCCAlcCFDXCr/RyBHIiUKu536FL+sFrpYAbMA0GCSqGSIb3DQEBCwUAMHEx
CzAJBgNVBAYTAkMxMQwwCgYDVQQIDANKUzExDDAKBgNVBAcMA1dYMTENMAsGA1UE
CgwERVNQMTENMAsGA1UECwwERVNQMTETMBEGA1UEAwwKU2VydmVyMSBDQTETMBEG
CSqGSIb3DQEJARYERVNQMTAeFw0yMjA2MTgwMzU0MDhaFw0zNjAyMjUwMzU0MDha
MHcxCzAJBgNVBAYTAkMyMQ0wCwYDVQQIDARKUzIyMQ0wCwYDVQQHDARXWDIyMQ4w
DAYDVQQKDAVFU1AyMjEOMAwGA1UECwwFRVNQMjIxFDASBgNVBAMMC1NlcnZlcjIy
IENBMRQwEgYJKoZIhvcNAQkBFgVFU1AyMjCCASIwDQYJKoZIhvcNAQEBBQADggEP
ADCCAQoCggEBAKzpmGH1+z1xa62Rr7/SnNpsfIqwm8OTzhCl7s+pPXD8k/ZcTihe
Fv7S+MHd1ULNvPjAOb/AwIW32pNho6R+5fHfpn9rTrUBHGFg/pOgtXCDWYDYVAZp
9Iu3lg9uOf7ZMyT2dKkGSq0G4eS3+zo/6/DRiECnh9CRoOH6sXZ5lGHhkEozMHEN
sdbAyPWQHuks4bd6OIjSl2pM1eexCuXkNnbN+SckqWtTtbs5e5xRtFlw8nkbP737
Yb51HrOzNu1iwQMRAjGkJRiLInjDhpT0xyG/dtgHdt/mcz1hKJfhXn6L6vUnqL7j
u6FNNxzyKgY7v6BcHQ891Sr4e8H6kegdIjECAwEAATANBgkqhkiG9w0BAQsFAAOC
AQEAezBMOnIwjQM/QZVzkfK2hypT3eK8CdrqeOwVmx2juo46uQ5NGONQ9HzqanHN
02RWxoPsWqI6sY9D9yIre94IxFj6CcarjLuHCTzQ1giXOm4GYcRD/PlrVvdHJRK4
q5YXNSP+eqj7y06IxX0GthvQxr0fwgGkX0RL5c3UiPuQYmljRbFUyy0wXTtNqIdS
LZ7VHXQbr6gW5oiRNEs/FzaagLZeCR1Wt9793z8xRl5nUrws8bLggw6Ky+fYSJIc
UXWEOSVjFJfwooe5sZ7/LtwDbHcJuYHTjzEPKsW2n3mSVn4LkirTzh6tXNVY6wGS
7dyt4yQ7MWjymjNWRVYYknIX5g==
-----END CERTIFICATE-----
