Certificate:
    Data:
        Version: 1 (0x0)
        Serial Number:
            0a:05:87:4e:52:54:54:cb:ce:a8:51:c6:c7:ed:bd:03:2e:5b:bc:b7
        Signature Algorithm: sha256WithRSAEncryption
        Issuer: C = C1, ST = JS1, L = WX1, O = ESP1, OU = ESP1, CN = Server1 CA, emailAddress = ESP1
        Validity
            Not Before: Jun 18 03:54:08 2022 GMT
            Not After : Feb 25 03:54:08 2036 GMT
        Subject: C = C1, ST = JS1, L = WX1, O = ESP1, OU = ESP1, CN = Server1 CA, emailAddress = ESP1
        Subject Public Key Info:
            Public Key Algorithm: rsaEncryption
                RSA Public-Key: (2048 bit)
                Modulus:
                    00:b3:13:9f:4d:10:64:dc:08:94:c0:41:f4:5d:1e:
                    49:3e:1b:a9:6f:9e:c5:f9:69:78:d4:6b:ce:12:d2:
                    53:1d:59:a5:39:85:80:13:d8:fa:77:39:ce:ee:72:
                    5c:cf:3e:5b:7e:b6:49:23:73:39:c0:96:ce:47:46:
                    5b:1f:7b:fe:23:fb:53:dd:8d:8b:33:34:df:a2:ab:
                    a1:f8:e1:6f:a0:dc:8a:a5:39:3f:71:78:84:a8:84:
                    6b:dc:0d:61:13:83:34:57:71:9d:9f:0b:69:e1:ff:
                    8d:aa:4b:de:5e:22:9e:aa:9c:03:8c:70:57:f8:66:
                    ba:7b:14:1e:0d:67:fe:d1:a8:85:13:de:24:8e:0f:
                    04:01:62:81:69:15:ad:57:98:1b:da:00:23:d7:d8:
                    e8:d5:f8:d8:f0:8e:a6:2a:b8:a1:6c:cc:45:be:31:
                    d6:1f:d7:8e:7b:ae:d8:a9:09:39:d1:42:ab:63:72:
                    7c:21:57:50:01:0d:52:16:6f:10:7c:10:02:36:0d:
                    2b:34:0b:22:9c:37:3b:1b:23:3b:1d:eb:df:df:c0:
                    2d:fb:4f:c1:4c:16:c1:09:69:76:f1:59:a3:6d:8a:
                    a6:a5:f2:ca:b2:bd:3f:94:7a:fe:5f:42:19:fd:8a:
                    21:98:57:20:72:a6:36:b6:01:83:b9:c6:4a:dd:1b:
                    15:99
                Exponent: 65537 (0x10001)
    Signature Algorithm: sha256WithRSAEncryption
         07:28:07:42:6a:70:26:c0:dc:63:65:4d:f7:84:99:68:c7:04:
         c9:b6:34:2f:aa:04:22:84:6d:a6:b2:e2:31:f2:dd:28:79:67:
         78:90:6a:37:5d:4b:2e:e9:e8:0b:2e:15:22:5a:f5:fd:80:fd:
         cb:4d:1c:09:80:2b:e7:8d:05:7a:61:eb:7c:12:c1:2f:68:f7:
         aa:59:71:65:da:c6:8c:8e:18:47:c8:ca:07:21:32:90:86:74:
         72:fc:98:74:22:5d:ab:98:0f:cd:14:22:78:84:02:2e:24:d1:
         98:09:a2:83:01:d0:09:5f:12:7b:7c:5a:75:a8:d3:14:06:a3:
         a2:6f:b5:be:bb:6d:4e:a6:b7:53:dd:ca:3b:6b:4d:40:50:c7:
         1a:b0:54:b1:c0:9a:fc:0c:dc:30:a9:ff:68:f8:59:6b:0e:3b:
         82:25:c9:93:ab:b1:0d:4e:33:5c:43:c0:08:aa:a2:eb:a2:0f:
         1d:37:d9:12:c9:ba:e8:f4:c3:a5:18:11:ea:b5:4a:4a:5d:23:
         14:51:f6:48:36:cb:9e:b3:1d:92:42:2a:42:f4:af:51:4b:38:
         49:81:b2:53:29:78:85:7e:f1:60:ba:9f:83:d6:1c:57:27:8e:
         37:40:57:83:6e:ca:7e:c8:8f:bc:00:53:5e:2c:1e:3b:9d:0e:
         4d:1d:90:86
-----BEGIN CERTIFICATE-----
MIIDaTCCAlECFAoFh05SVFTLzqhRxsftvQMuW7y3MA0GCSqGSIb3DQEBCwUAMHEx
CzAJBgNVBAYTAkMxMQwwCgYDVQQIDANKUzExDDAKBgNVBAcMA1dYMTENMAsGA1UE
CgwERVNQMTENMAsGA1UECwwERVNQMTETMBEGA1UEAwwKU2VydmVyMSBDQTETMBEG
CSqGSIb3DQEJARYERVNQMTAeFw0yMjA2MTgwMzU0MDhaFw0zNjAyMjUwMzU0MDha
MHExCzAJBgNVBAYTAkMxMQwwCgYDVQQIDANKUzExDDAKBgNVBAcMA1dYMTENMAsG
A1UECgwERVNQMTENMAsGA1UECwwERVNQMTETMBEGA1UEAwwKU2VydmVyMSBDQTET
MBEGCSqGSIb3DQEJARYERVNQMTCCASIwDQYJKoZIhvcNAQEBBQADggEPADCCAQoC
ggEBALMTn00QZNwIlMBB9F0eST4bqW+exflpeNRrzhLSUx1ZpTmFgBPY+nc5zu5y
XM8+W362SSNzOcCWzkdGWx97/iP7U92NizM036Krofjhb6DciqU5P3F4hKiEa9wN
YRODNFdxnZ8LaeH/japL3l4inqqcA4xwV/hmunsUHg1n/tGohRPeJI4PBAFigWkV
rVeYG9oAI9fY6NX42PCOpiq4oWzMRb4x1h/Xjnuu2KkJOdFCq2NyfCFXUAENUhZv
EHwQAjYNKzQLIpw3OxsjOx3r39/ALftPwUwWwQlpdvFZo22KpqXyyrK9P5R6/l9C
Gf2KIZhXIHKmNrYBg7nGSt0bFZkCAwEAATANBgkqhkiG9w0BAQsFAAOCAQEABygH
QmpwJsDcY2VN94SZaMcEybY0L6oEIoRtprLiMfLdKHlneJBqN11LLunoCy4VIlr1
/YD9y00cCYAr540FemHrfBLBL2j3qllxZdrGjI4YR8jKByEykIZ0cvyYdCJdq5gP
zRQieIQCLiTRmAmigwHQCV8Se3xadajTFAajom+1vrttTqa3U93KO2tNQFDHGrBU
scCa/AzcMKn/aPhZaw47giXJk6uxDU4zXEPACKqi66IPHTfZEsm66PTDpRgR6rVK
Sl0jFFH2SDbLnrMdkkIqQvSvUUs4SYGyUyl4hX7xYLqfg9YcVyeON0BXg27KfsiP
vABTXiweO50OTR2Qhg==
-----END CERTIFICATE-----
