Certificate:
    Data:
        Version: 1 (0x0)
        Serial Number:
            35:c2:af:f4:72:04:72:22:50:ab:b9:df:a1:4b:fa:c1:6b:a5:80:1c
        Signature Algorithm: sha256WithRSAEncryption
        Issuer: C = C1, ST = JS1, L = WX1, O = ESP1, OU = ESP1, CN = Server1 CA, emailAddress = ESP1
        Validity
            Not Before: Jun 18 03:54:08 2022 GMT
            Not After : Feb 25 03:54:08 2036 GMT
        Subject: C = C3, ST = JS333, L = WX333, O = ESP333, OU = ESP333, CN = Server333 CA, emailAddress = ESP333
        Subject Public Key Info:
            Public Key Algorithm: rsaEncryption
                RSA Public-Key: (2048 bit)
                Modulus:
                    00:a6:7a:69:6c:de:28:d0:51:7e:4f:b3:f1:11:7a:
                    65:80:8f:78:8e:b3:1e:40:96:71:4d:ea:ee:15:2c:
                    47:c9:6d:77:8e:10:38:21:56:62:1e:ca:28:fa:c4:
                    80:f3:1b:7c:58:82:90:58:de:47:48:e4:2d:8e:60:
                    77:72:b9:1a:f3:fd:f7:c9:57:5e:48:34:a9:0d:a1:
                    1a:b4:fc:dd:80:9c:b6:aa:de:de:f7:1c:da:5a:9b:
                    49:55:54:9b:82:a1:99:39:e9:b1:59:0d:d6:55:0a:
                    c7:f1:3e:17:f7:3b:2d:fe:6b:c7:f6:e3:fb:a9:15:
                    84:a2:3e:f0:b3:a3:4c:96:64:79:41:26:4a:d9:42:
                    f9:f6:19:45:78:07:3a:b2:aa:ac:6f:ac:27:74:8e:
                    bd:03:1d:dc:f9:10:49:31:db:b2:76:7a:66:41:5a:
                    aa:b4:78:48:b4:64:b8:46:c3:54:f1:c6:14:a5:fa:
                    fa:5d:09:81:4b:85:57:75:3d:02:f6:7f:3b:1f:2b:
                    d3:d9:a0:49:36:c8:1f:61:ca:d3:5c:45:27:2c:5b:
                    47:de:d2:5b:a2:1f:60:94:83:48:64:9d:9d:02:a4:
                    a2:04:89:18:f6:8d:ba:93:3d:ef:62:a0:40:ed:45:
                    16:18:df:55:1e:b7:5f:b9:5a:ac:2a:11:e9:47:bf:
                    d7:cd
                Exponent: 65537 (0x10001)
    Signature Algorithm: sha256WithRSAEncryption
         12:f3:99:e1:d7:4d:be:b0:f1:23:b7:b8:fb:fd:2f:ce:6d:aa:
         e0:29:b6:fb:bd:9b:82:72:7d:70:ff:95:8b:d4:57:4a:03:e9:
         b9:1e:95:8a:e4:aa:f7:c2:b9:38:49:e4:41:13:42:cb:d0:2d:
         2f:42:61:d1:70:46:de:77:b4:ca:6b:65:a7:60:74:7d:a3:ab:
         e8:cc:c2:ce:4d:7a:fe:01:49:d4:e2:f4:a7:e9:d5:43:fe:21:
         62:81:2f:c1:9b:c3:d5:1e:e2:83:43:ab:64:1e:48:33:7a:0e:
         fc:e7:f4:d0:81:14:2a:39:4c:6d:ee:8f:1b:a7:91:8b:7b:00:
         ca:2d:af:c1:ef:b3:14:cd:71:b9:70:00:ce:64:ed:b4:d3:ba:
         b5:db:a0:d1:bc:88:28:28:fd:6b:89:32:ca:24:c5:00:17:95:
         0d:1b:2d:49:c5:6c:9a:bd:90:1a:ed:bc:8f:b6:fd:59:9c:4c:
         bb:c5:74:5e:66:5a:ea:1f:51:38:b0:03:66:a6:6a:aa:6c:89:
         5d:27:59:1d:f0:24:25:ac:74:04:95:a2:3f:83:df:98:44:ab:
         bb:a4:75:fe:7b:35:c1:7e:cb:9c:22:14:48:a3:00:24:5c:3c:
         ee:00:2e:ad:3f:75:fc:49:42:87:8b:bb:9a:eb:09:0b:bf:60:
         e5:36:24:37
-----BEGIN CERTIFICATE-----
MIIDdTCCAl0CFDXCr/RyBHIiUKu536FL+sFrpYAcMA0GCSqGSIb3DQEBCwUAMHEx
CzAJBgNVBAYTAkMxMQwwCgYDVQQIDANKUzExDDAKBgNVBAcMA1dYMTENMAsGA1UE
CgwERVNQMTENMAsGA1UECwwERVNQMTETMBEGA1UEAwwKU2VydmVyMSBDQTETMBEG
CSqGSIb3DQEJARYERVNQMTAeFw0yMjA2MTgwMzU0MDhaFw0zNjAyMjUwMzU0MDha
MH0xCzAJBgNVBAYTAkMzMQ4wDAYDVQQIDAVKUzMzMzEOMAwGA1UEBwwFV1gzMzMx
DzANBgNVBAoMBkVTUDMzMzEPMA0GA1UECwwGRVNQMzMzMRUwEwYDVQQDDAxTZXJ2
ZXIzMzMgQ0ExFTATBgkqhkiG9w0BCQEWBkVTUDMzMzCCASIwDQYJKoZIhvcNAQEB
BQADggEPADCCAQoCggEBAKZ6aWzeKNBRfk+z8RF6ZYCPeI6zHkCWcU3q7hUsR8lt
d44QOCFWYh7KKPrEgPMbfFiCkFjeR0jkLY5gd3K5GvP998lXXkg0qQ2hGrT83YCc
tqre3vcc2lqbSVVUm4KhmTnpsVkN1lUKx/E+F/c7Lf5rx/bj+6kVhKI+8LOjTJZk
eUEmStlC+fYZRXgHOrKqrG+sJ3SOvQMd3PkQSTHbsnZ6ZkFaqrR4SLRkuEbDVPHG
FKX6+l0JgUuFV3U9AvZ/Ox8r09mgSTbIH2HK01xFJyxbR97SW6IfYJSDSGSdnQKk
ogSJGPaNupM972KgQO1FFhjfVR63X7larCoR6Ue/180CAwEAATANBgkqhkiG9w0B
AQsFAAOCAQEAEvOZ4ddNvrDxI7e4+/0vzm2q4Cm2+72bgnJ9cP+Vi9RXSgPpuR6V
iuSq98K5OEnkQRNCy9AtL0Jh0XBG3ne0ymtlp2B0faOr6MzCzk16/gFJ1OL0p+nV
Q/4hYoEvwZvD1R7ig0OrZB5IM3oO/Of00IEUKjlMbe6PG6eRi3sAyi2vwe+zFM1x
uXAAzmTttNO6tdug0byIKCj9a4kyyiTFABeVDRstScVsmr2QGu28j7b9WZxMu8V0
XmZa6h9ROLADZqZqqmyJXSdZHfAkJax0BJWiP4PfmESru6R1/ns1wX7LnCIUSKMA
JFw87gAurT91/ElCh4u7musJC79g5TYkNw==
-----END CERTIFICATE-----
